target datalayout = "e-m:e-p270:32:32-p271:32:32-p272:64:64-i64:64-i128:128-f80:128-n8:16:32:64-S128"
target triple = "x86_64-pc-linux-gnu"

%class.EditPickPointsFactory = type { %class.QObject, %class.EditPlugin, ptr }
%class.QObject = type { ptr, %class.QScopedPointer }
%class.QScopedPointer = type { ptr }
%class.EditPlugin = type { %class.MeshLabPlugin, %"class.std::__cxx11::list" }
%class.MeshLabPlugin = type { ptr, i8, %class.QFileInfo }
%class.QFileInfo = type { %class.QSharedDataPointer }
%class.QSharedDataPointer = type { ptr }
%"class.std::__cxx11::list" = type { %"class.std::__cxx11::_List_base" }
%"class.std::__cxx11::_List_base" = type { %"struct.std::__cxx11::_List_base<QAction *, std::allocator<QAction *>>::_List_impl" }
%"struct.std::__cxx11::_List_base<QAction *, std::allocator<QAction *>>::_List_impl" = type { %"struct.std::__detail::_List_node_header" }
%"struct.std::__detail::_List_node_header" = type { %"struct.std::__detail::_List_node_base", i64 }
%"struct.std::__detail::_List_node_base" = type { ptr, ptr }

; Function Attrs: mustprogress uwtable
define noundef ptr @_ZN21EditPickPointsFactory11getEditToolEPK7QAction(ptr noundef nonnull align 8 dereferenceable(72) %0, ptr noundef %1) unnamed_addr #5 align 2 personality ptr @__gxx_personality_v0 {
  %3 = alloca ptr, align 8
  %4 = alloca ptr, align 8
  %5 = alloca ptr, align 8
  %6 = alloca ptr, align 8
  %7 = alloca i32, align 4
  store ptr %0, ptr %4, align 8
  store ptr %1, ptr %5, align 8
  %8 = load ptr, ptr %4, align 8
  %9 = load ptr, ptr %5, align 8
  %10 = getelementptr inbounds %class.EditPickPointsFactory, ptr %8, i32 0, i32 2
  %11 = load ptr, ptr %10, align 8
  %12 = icmp eq ptr %9, %11
  br i1 %12, label %13, label %25

13:                                               ; preds = %2
  %14 = call noalias noundef nonnull ptr @_Znwm(i64 noundef 80) #15
  invoke void @_ZN20EditPickPointsPluginC1Ev(ptr noundef nonnull align 8 dereferenceable(76) %14)
          to label %15 unwind label %21

15:                                               ; preds = %13
  %16 = icmp eq ptr %14, null
  br i1 %16, label %19, label %17

17:                                               ; preds = %15
  %18 = getelementptr inbounds i8, ptr %14, i64 16
  br label %19

19:                                               ; preds = %17, %15
  %20 = phi ptr [ %18, %17 ], [ null, %15 ]
  store ptr %20, ptr %3, align 8
  br label %26

21:                                               ; preds = %13
  %22 = landingpad { ptr, i32 }
          cleanup
  %23 = extractvalue { ptr, i32 } %22, 0
  store ptr %23, ptr %6, align 8
  %24 = extractvalue { ptr, i32 } %22, 1
  store i32 %24, ptr %7, align 4
  call void @_ZdlPv(ptr noundef %14) #16
  br label %28

25:                                               ; preds = %2
  store ptr null, ptr %3, align 8
  br label %26

26:                                               ; preds = %25, %19
  %27 = load ptr, ptr %3, align 8
  ret ptr %27

28:                                               ; preds = %21
  %29 = load ptr, ptr %6, align 8
  %30 = load i32, ptr %7, align 4
  %31 = insertvalue { ptr, i32 } poison, ptr %29, 0
  %32 = insertvalue { ptr, i32 } %31, i32 %30, 1
  resume { ptr, i32 } %32
}